target datalayout = "e-m:e-p270:32:32-p271:32:32-p272:64:64-i64:64-i128:128-f80:128-n8:16:32:64-S128"
target triple = "x86_64-unknown-linux-gnu"

%"class.std::_Function_base" = type { %"union.std::_Any_data", ptr }
%"union.std::_Any_data" = type { %"union.std::_Nocopy_types" }
%"union.std::_Nocopy_types" = type { { i64, i64 } }
%"class.testing::exceptions_internal::ExceptionSafetyTest.517" = type { %"class.std::function.518", %"class.std::function.520", %"class.std::vector.523" }
%"class.std::function.518" = type { %"class.std::_Function_base", ptr }
%"class.std::function.520" = type { %"class.std::_Function_base", ptr }
%"class.std::vector.523" = type { %"struct.std::_Vector_base.524" }
%"struct.std::_Vector_base.524" = type { %"struct.std::_Vector_base<std::function<testing::AssertionResult (testing::(anonymous namespace)::NonCopyable *)>, std::allocator<std::function<testing::AssertionResult (testing::(anonymous namespace)::NonCopyable *)>>>::_Vector_impl" }
%"struct.std::_Vector_base<std::function<testing::AssertionResult (testing::(anonymous namespace)::NonCopyable *)>, std::allocator<std::function<testing::AssertionResult (testing::(anonymous namespace)::NonCopyable *)>>>::_Vector_impl" = type { %"struct.std::_Vector_base<std::function<testing::AssertionResult (testing::(anonymous namespace)::NonCopyable *)>, std::allocator<std::function<testing::AssertionResult (testing::(anonymous namespace)::NonCopyable *)>>>::_Vector_impl_data" }
%"struct.std::_Vector_base<std::function<testing::AssertionResult (testing::(anonymous namespace)::NonCopyable *)>, std::allocator<std::function<testing::AssertionResult (testing::(anonymous namespace)::NonCopyable *)>>>::_Vector_impl_data" = type { ptr, ptr, ptr }
%"class.std::function.539" = type { %"class.std::_Function_base", ptr }

; Function Attrs: mustprogress nounwind uwtable
define internal void @_ZNSt8functionIFN7testing15AssertionResultEPNS0_12_GLOBAL__N_111NonCopyableEEED2Ev(ptr noundef nonnull align 8 dereferenceable(32) %this) unnamed_addr #7 align 2 {
entry:
  %this.addr = alloca ptr, align 8
  store ptr %this, ptr %this.addr, align 8
  %this1 = load ptr, ptr %this.addr, align 8
  call void @_ZNSt14_Function_baseD2Ev(ptr noundef nonnull align 8 dereferenceable(24) %this1) #3
  ret void
}

; Function Attrs: mustprogress nounwind uwtable
define internal void @_ZNSt15__new_allocatorISt8functionIFN7testing15AssertionResultEPNS1_12_GLOBAL__N_111NonCopyableEEEED2Ev(ptr noundef nonnull align 1 dereferenceable(1) %this) unnamed_addr #7 align 2 {
entry:
  %this.addr = alloca ptr, align 8
  store ptr %this, ptr %this.addr, align 8
  ret void
}

; Function Attrs: mustprogress nounwind uwtable
define internal void @_ZNSt15__new_allocatorISt8functionIFN7testing15AssertionResultEPNS1_12_GLOBAL__N_111NonCopyableEEEE10deallocateEPS7_m(ptr noundef nonnull align 1 dereferenceable(1) %this, ptr noundef %__p, i64 noundef %__n) #7 align 2 {
entry:
  %this.addr = alloca ptr, align 8
  %__p.addr = alloca ptr, align 8
  %__n.addr = alloca i64, align 8
  store ptr %this, ptr %this.addr, align 8
  store ptr %__p, ptr %__p.addr, align 8
  store i64 %__n, ptr %__n.addr, align 8
  %0 = load ptr, ptr %__p.addr, align 8
  call void @_ZdlPv(ptr noundef %0) #17
  ret void
}

; Function Attrs: mustprogress nounwind uwtable
define internal void @_ZSt8_DestroyISt8functionIFN7testing15AssertionResultEPNS1_12_GLOBAL__N_111NonCopyableEEEEvPT_(ptr noundef %__pointer) #7 {
entry:
  %__pointer.addr = alloca ptr, align 8
  store ptr %__pointer, ptr %__pointer.addr, align 8
  %0 = load ptr, ptr %__pointer.addr, align 8
  call void @_ZNSt8functionIFN7testing15AssertionResultEPNS0_12_GLOBAL__N_111NonCopyableEEED2Ev(ptr noundef nonnull align 8 dereferenceable(32) %0) #3
  ret void
}

; Function Attrs: mustprogress nounwind uwtable
define internal void @_ZNSaISt8functionIFN7testing15AssertionResultEPNS0_12_GLOBAL__N_111NonCopyableEEEED2Ev(ptr noundef nonnull align 1 dereferenceable(1) %this) unnamed_addr #7 align 2 {
entry:
  %this.addr = alloca ptr, align 8
  store ptr %this, ptr %this.addr, align 8
  %this1 = load ptr, ptr %this.addr, align 8
  call void @_ZNSt15__new_allocatorISt8functionIFN7testing15AssertionResultEPNS1_12_GLOBAL__N_111NonCopyableEEEED2Ev(ptr noundef nonnull align 1 dereferenceable(1) %this1) #3
  ret void
}

; Function Attrs: mustprogress uwtable
define internal void @_ZNSt16allocator_traitsISaISt8functionIFN7testing15AssertionResultEPNS1_12_GLOBAL__N_111NonCopyableEEEEE10deallocateERS8_PS7_m(ptr noundef nonnull align 1 dereferenceable(1) %__a, ptr noundef %__p, i64 noundef %__n) #4 align 2 {
entry:
  %__a.addr = alloca ptr, align 8
  %__p.addr = alloca ptr, align 8
  %__n.addr = alloca i64, align 8
  store ptr %__a, ptr %__a.addr, align 8
  store ptr %__p, ptr %__p.addr, align 8
  store i64 %__n, ptr %__n.addr, align 8
  %0 = load ptr, ptr %__a.addr, align 8
  %1 = load ptr, ptr %__p.addr, align 8
  %2 = load i64, ptr %__n.addr, align 8
  call void @_ZNSt15__new_allocatorISt8functionIFN7testing15AssertionResultEPNS1_12_GLOBAL__N_111NonCopyableEEEE10deallocateEPS7_m(ptr noundef nonnull align 1 dereferenceable(1) %0, ptr noundef %1, i64 noundef %2)
  ret void
}

; Function Attrs: mustprogress uwtable
define internal void @_ZNSt12_Destroy_auxILb0EE9__destroyIPSt8functionIFN7testing15AssertionResultEPNS3_12_GLOBAL__N_111NonCopyableEEEEEvT_SB_(ptr noundef %__first, ptr noundef %__last) #4 align 2 {
entry:
  %__first.addr = alloca ptr, align 8
  %__last.addr = alloca ptr, align 8
  store ptr %__first, ptr %__first.addr, align 8
  store ptr %__last, ptr %__last.addr, align 8
  br label %for.cond

for.cond:                                         ; preds = %for.inc, %entry
  %0 = load ptr, ptr %__first.addr, align 8
  %1 = load ptr, ptr %__last.addr, align 8
  %cmp = icmp ne ptr %0, %1
  br i1 %cmp, label %for.body, label %for.end

for.body:                                         ; preds = %for.cond
  %2 = load ptr, ptr %__first.addr, align 8
  call void @_ZSt8_DestroyISt8functionIFN7testing15AssertionResultEPNS1_12_GLOBAL__N_111NonCopyableEEEEvPT_(ptr noundef %2)
  br label %for.inc

for.inc:                                          ; preds = %for.body
  %3 = load ptr, ptr %__first.addr, align 8
  %incdec.ptr = getelementptr inbounds %"class.std::function.539", ptr %3, i32 1
  store ptr %incdec.ptr, ptr %__first.addr, align 8
  br label %for.cond, !llvm.loop !49

for.end:                                          ; preds = %for.cond
  ret void
}

; Function Attrs: mustprogress nounwind uwtable
define internal void @_ZNSt12_Vector_baseISt8functionIFN7testing15AssertionResultEPNS1_12_GLOBAL__N_111NonCopyableEEESaIS7_EE12_Vector_implD2Ev(ptr noundef nonnull align 8 dereferenceable(24) %this) unnamed_addr #7 align 2 {
entry:
  %this.addr = alloca ptr, align 8
  store ptr %this, ptr %this.addr, align 8
  %this1 = load ptr, ptr %this.addr, align 8
  call void @_ZNSaISt8functionIFN7testing15AssertionResultEPNS0_12_GLOBAL__N_111NonCopyableEEEED2Ev(ptr noundef nonnull align 1 dereferenceable(1) %this1) #3
  ret void
}

; Function Attrs: mustprogress uwtable
define internal void @_ZNSt12_Vector_baseISt8functionIFN7testing15AssertionResultEPNS1_12_GLOBAL__N_111NonCopyableEEESaIS7_EE13_M_deallocateEPS7_m(ptr noundef nonnull align 8 dereferenceable(24) %this, ptr noundef %__p, i64 noundef %__n) #4 align 2 {
entry:
  %this.addr = alloca ptr, align 8
  %__p.addr = alloca ptr, align 8
  %__n.addr = alloca i64, align 8
  store ptr %this, ptr %this.addr, align 8
  store ptr %__p, ptr %__p.addr, align 8
  store i64 %__n, ptr %__n.addr, align 8
  %this1 = load ptr, ptr %this.addr, align 8
  %0 = load ptr, ptr %__p.addr, align 8
  %tobool = icmp ne ptr %0, null
  br i1 %tobool, label %if.then, label %if.end

if.then:                                          ; preds = %entry
  %_M_impl = getelementptr inbounds %"struct.std::_Vector_base.524", ptr %this1, i32 0, i32 0
  %1 = load ptr, ptr %__p.addr, align 8
  %2 = load i64, ptr %__n.addr, align 8
  call void @_ZNSt16allocator_traitsISaISt8functionIFN7testing15AssertionResultEPNS1_12_GLOBAL__N_111NonCopyableEEEEE10deallocateERS8_PS7_m(ptr noundef nonnull align 1 dereferenceable(1) %_M_impl, ptr noundef %1, i64 noundef %2)
  br label %if.end

if.end:                                           ; preds = %if.then, %entry
  ret void
}

; Function Attrs: mustprogress uwtable
define internal void @_ZSt8_DestroyIPSt8functionIFN7testing15AssertionResultEPNS1_12_GLOBAL__N_111NonCopyableEEEEvT_S9_(ptr noundef %__first, ptr noundef %__last) #4 {
entry:
  %__first.addr = alloca ptr, align 8
  %__last.addr = alloca ptr, align 8
  store ptr %__first, ptr %__first.addr, align 8
  store ptr %__last, ptr %__last.addr, align 8
  %0 = load ptr, ptr %__first.addr, align 8
  %1 = load ptr, ptr %__last.addr, align 8
  call void @_ZNSt12_Destroy_auxILb0EE9__destroyIPSt8functionIFN7testing15AssertionResultEPNS3_12_GLOBAL__N_111NonCopyableEEEEEvT_SB_(ptr noundef %0, ptr noundef %1)
  ret void
}

; Function Attrs: mustprogress nounwind uwtable
define linkonce_odr dso_local void @_ZNSt14_Function_baseD2Ev(ptr noundef nonnull align 8 dereferenceable(24) %this) unnamed_addr #7 comdat align 2 personality ptr @__gxx_personality_v0 {
entry:
  %this.addr = alloca ptr, align 8
  store ptr %this, ptr %this.addr, align 8
  %this1 = load ptr, ptr %this.addr, align 8
  %_M_manager = getelementptr inbounds %"class.std::_Function_base", ptr %this1, i32 0, i32 1
  %0 = load ptr, ptr %_M_manager, align 8
  %tobool = icmp ne ptr %0, null
  br i1 %tobool, label %if.then, label %if.end

if.then:                                          ; preds = %entry
  %_M_manager2 = getelementptr inbounds %"class.std::_Function_base", ptr %this1, i32 0, i32 1
  %1 = load ptr, ptr %_M_manager2, align 8
  %_M_functor = getelementptr inbounds %"class.std::_Function_base", ptr %this1, i32 0, i32 0
  %_M_functor3 = getelementptr inbounds %"class.std::_Function_base", ptr %this1, i32 0, i32 0
  %call = invoke noundef zeroext i1 %1(ptr noundef nonnull align 8 dereferenceable(16) %_M_functor, ptr noundef nonnull align 8 dereferenceable(16) %_M_functor3, i32 noundef 3)
          to label %invoke.cont unwind label %terminate.lpad

invoke.cont:                                      ; preds = %if.then
  br label %if.end

if.end:                                           ; preds = %invoke.cont, %entry
  ret void

terminate.lpad:                                   ; preds = %if.then
  %2 = landingpad { ptr, i32 }
          catch ptr null
  %3 = extractvalue { ptr, i32 } %2, 0
  call void @__clang_call_terminate(ptr %3) #19
  unreachable
}

; Function Attrs: mustprogress nounwind uwtable
define internal void @_ZNSt12_Vector_baseISt8functionIFN7testing15AssertionResultEPNS1_12_GLOBAL__N_111NonCopyableEEESaIS7_EED2Ev(ptr noundef nonnull align 8 dereferenceable(24) %this) unnamed_addr #7 align 2 personality ptr @__gxx_personality_v0 {
entry:
  %this.addr = alloca ptr, align 8
  store ptr %this, ptr %this.addr, align 8
  %this1 = load ptr, ptr %this.addr, align 8
  %_M_impl = getelementptr inbounds %"struct.std::_Vector_base.524", ptr %this1, i32 0, i32 0
  %_M_start = getelementptr inbounds %"struct.std::_Vector_base<std::function<testing::AssertionResult (testing::(anonymous namespace)::NonCopyable *)>, std::allocator<std::function<testing::AssertionResult (testing::(anonymous namespace)::NonCopyable *)>>>::_Vector_impl_data", ptr %_M_impl, i32 0, i32 0
  %0 = load ptr, ptr %_M_start, align 8
  %_M_impl2 = getelementptr inbounds %"struct.std::_Vector_base.524", ptr %this1, i32 0, i32 0
  %_M_end_of_storage = getelementptr inbounds %"struct.std::_Vector_base<std::function<testing::AssertionResult (testing::(anonymous namespace)::NonCopyable *)>, std::allocator<std::function<testing::AssertionResult (testing::(anonymous namespace)::NonCopyable *)>>>::_Vector_impl_data", ptr %_M_impl2, i32 0, i32 2
  %1 = load ptr, ptr %_M_end_of_storage, align 8
  %_M_impl3 = getelementptr inbounds %"struct.std::_Vector_base.524", ptr %this1, i32 0, i32 0
  %_M_start4 = getelementptr inbounds %"struct.std::_Vector_base<std::function<testing::AssertionResult (testing::(anonymous namespace)::NonCopyable *)>, std::allocator<std::function<testing::AssertionResult (testing::(anonymous namespace)::NonCopyable *)>>>::_Vector_impl_data", ptr %_M_impl3, i32 0, i32 0
  %2 = load ptr, ptr %_M_start4, align 8
  %sub.ptr.lhs.cast = ptrtoint ptr %1 to i64
  %sub.ptr.rhs.cast = ptrtoint ptr %2 to i64
  %sub.ptr.sub = sub i64 %sub.ptr.lhs.cast, %sub.ptr.rhs.cast
  %sub.ptr.div = sdiv exact i64 %sub.ptr.sub, 32
  invoke void @_ZNSt12_Vector_baseISt8functionIFN7testing15AssertionResultEPNS1_12_GLOBAL__N_111NonCopyableEEESaIS7_EE13_M_deallocateEPS7_m(ptr noundef nonnull align 8 dereferenceable(24) %this1, ptr noundef %0, i64 noundef %sub.ptr.div)
          to label %invoke.cont unwind label %terminate.lpad

invoke.cont:                                      ; preds = %entry
  %_M_impl5 = getelementptr inbounds %"struct.std::_Vector_base.524", ptr %this1, i32 0, i32 0
  call void @_ZNSt12_Vector_baseISt8functionIFN7testing15AssertionResultEPNS1_12_GLOBAL__N_111NonCopyableEEESaIS7_EE12_Vector_implD2Ev(ptr noundef nonnull align 8 dereferenceable(24) %_M_impl5) #3
  ret void

terminate.lpad:                                   ; preds = %entry
  %3 = landingpad { ptr, i32 }
          catch ptr null
  %4 = extractvalue { ptr, i32 } %3, 0
  call void @__clang_call_terminate(ptr %4) #19
  unreachable
}

; Function Attrs: mustprogress uwtable
define internal void @_ZSt8_DestroyIPSt8functionIFN7testing15AssertionResultEPNS1_12_GLOBAL__N_111NonCopyableEEES7_EvT_S9_RSaIT0_E(ptr noundef %__first, ptr noundef %__last, ptr noundef nonnull align 1 dereferenceable(1) %0) #4 {
entry:
  %__first.addr = alloca ptr, align 8
  %__last.addr = alloca ptr, align 8
  %.addr = alloca ptr, align 8
  store ptr %__first, ptr %__first.addr, align 8
  store ptr %__last, ptr %__last.addr, align 8
  store ptr %0, ptr %.addr, align 8
  %1 = load ptr, ptr %__first.addr, align 8
  %2 = load ptr, ptr %__last.addr, align 8
  call void @_ZSt8_DestroyIPSt8functionIFN7testing15AssertionResultEPNS1_12_GLOBAL__N_111NonCopyableEEEEvT_S9_(ptr noundef %1, ptr noundef %2)
  ret void
}

; Function Attrs: mustprogress nounwind uwtable
define internal noundef nonnull align 1 dereferenceable(1) ptr @_ZNSt12_Vector_baseISt8functionIFN7testing15AssertionResultEPNS1_12_GLOBAL__N_111NonCopyableEEESaIS7_EE19_M_get_Tp_allocatorEv(ptr noundef nonnull align 8 dereferenceable(24) %this) #7 align 2 {
entry:
  %this.addr = alloca ptr, align 8
  store ptr %this, ptr %this.addr, align 8
  %this1 = load ptr, ptr %this.addr, align 8
  %_M_impl = getelementptr inbounds %"struct.std::_Vector_base.524", ptr %this1, i32 0, i32 0
  ret ptr %_M_impl
}

; Function Attrs: mustprogress nounwind uwtable
define internal void @_ZNSt8functionIFSt10unique_ptrIN7testing12_GLOBAL__N_111NonCopyableESt14default_deleteIS3_EEvEED2Ev(ptr noundef nonnull align 8 dereferenceable(32) %this) unnamed_addr #7 align 2 {
entry:
  %this.addr = alloca ptr, align 8
  store ptr %this, ptr %this.addr, align 8
  %this1 = load ptr, ptr %this.addr, align 8
  call void @_ZNSt14_Function_baseD2Ev(ptr noundef nonnull align 8 dereferenceable(24) %this1) #3
  ret void
}

; Function Attrs: mustprogress nounwind uwtable
define internal void @_ZNSt8functionIFvPN7testing12_GLOBAL__N_111NonCopyableEEED2Ev(ptr noundef nonnull align 8 dereferenceable(32) %this) unnamed_addr #7 align 2 {
entry:
  %this.addr = alloca ptr, align 8
  store ptr %this, ptr %this.addr, align 8
  %this1 = load ptr, ptr %this.addr, align 8
  call void @_ZNSt14_Function_baseD2Ev(ptr noundef nonnull align 8 dereferenceable(24) %this1) #3
  ret void
}

; Function Attrs: mustprogress nounwind uwtable
define internal void @_ZNSt6vectorISt8functionIFN7testing15AssertionResultEPNS1_12_GLOBAL__N_111NonCopyableEEESaIS7_EED2Ev(ptr noundef nonnull align 8 dereferenceable(24) %this) unnamed_addr #7 align 2 personality ptr @__gxx_personality_v0 {
entry:
  %this.addr = alloca ptr, align 8
  store ptr %this, ptr %this.addr, align 8
  %this1 = load ptr, ptr %this.addr, align 8
  %_M_impl = getelementptr inbounds %"struct.std::_Vector_base.524", ptr %this1, i32 0, i32 0
  %_M_start = getelementptr inbounds %"struct.std::_Vector_base<std::function<testing::AssertionResult (testing::(anonymous namespace)::NonCopyable *)>, std::allocator<std::function<testing::AssertionResult (testing::(anonymous namespace)::NonCopyable *)>>>::_Vector_impl_data", ptr %_M_impl, i32 0, i32 0
  %0 = load ptr, ptr %_M_start, align 8
  %_M_impl2 = getelementptr inbounds %"struct.std::_Vector_base.524", ptr %this1, i32 0, i32 0
  %_M_finish = getelementptr inbounds %"struct.std::_Vector_base<std::function<testing::AssertionResult (testing::(anonymous namespace)::NonCopyable *)>, std::allocator<std::function<testing::AssertionResult (testing::(anonymous namespace)::NonCopyable *)>>>::_Vector_impl_data", ptr %_M_impl2, i32 0, i32 1
  %1 = load ptr, ptr %_M_finish, align 8
  %call = call noundef nonnull align 1 dereferenceable(1) ptr @_ZNSt12_Vector_baseISt8functionIFN7testing15AssertionResultEPNS1_12_GLOBAL__N_111NonCopyableEEESaIS7_EE19_M_get_Tp_allocatorEv(ptr noundef nonnull align 8 dereferenceable(24) %this1) #3
  invoke void @_ZSt8_DestroyIPSt8functionIFN7testing15AssertionResultEPNS1_12_GLOBAL__N_111NonCopyableEEES7_EvT_S9_RSaIT0_E(ptr noundef %0, ptr noundef %1, ptr noundef nonnull align 1 dereferenceable(1) %call)
          to label %invoke.cont unwind label %terminate.lpad

invoke.cont:                                      ; preds = %entry
  call void @_ZNSt12_Vector_baseISt8functionIFN7testing15AssertionResultEPNS1_12_GLOBAL__N_111NonCopyableEEESaIS7_EED2Ev(ptr noundef nonnull align 8 dereferenceable(24) %this1) #3
  ret void

terminate.lpad:                                   ; preds = %entry
  %2 = landingpad { ptr, i32 }
          catch ptr null
  %3 = extractvalue { ptr, i32 } %2, 0
  call void @__clang_call_terminate(ptr %3) #19
  unreachable
}

; Function Attrs: mustprogress nounwind uwtable
define internal void @_ZN7testing19exceptions_internal19ExceptionSafetyTestINS_12_GLOBAL__N_111NonCopyableEED2Ev(ptr noundef nonnull align 8 dereferenceable(88) %this) unnamed_addr #7 align 2 {
entry:
  %this.addr = alloca ptr, align 8
  store ptr %this, ptr %this.addr, align 8
  %this1 = load ptr, ptr %this.addr, align 8
  %contracts_ = getelementptr inbounds %"class.testing::exceptions_internal::ExceptionSafetyTest.517", ptr %this1, i32 0, i32 2
  call void @_ZNSt6vectorISt8functionIFN7testing15AssertionResultEPNS1_12_GLOBAL__N_111NonCopyableEEESaIS7_EED2Ev(ptr noundef nonnull align 8 dereferenceable(24) %contracts_) #3
  %operation_ = getelementptr inbounds %"class.testing::exceptions_internal::ExceptionSafetyTest.517", ptr %this1, i32 0, i32 1
  call void @_ZNSt8functionIFvPN7testing12_GLOBAL__N_111NonCopyableEEED2Ev(ptr noundef nonnull align 8 dereferenceable(32) %operation_) #3
  %factory_ = getelementptr inbounds %"class.testing::exceptions_internal::ExceptionSafetyTest.517", ptr %this1, i32 0, i32 0
  call void @_ZNSt8functionIFSt10unique_ptrIN7testing12_GLOBAL__N_111NonCopyableESt14default_deleteIS3_EEvEED2Ev(ptr noundef nonnull align 8 dereferenceable(32) %factory_) #3
  ret void
}